; Function Attrs: mustprogress uwtable
define dso_local void @_ZN2EA6EAMain12PrintManager8ShutdownEv(ptr nocapture noundef nonnull align 8 dereferenceable(24) %this) local_unnamed_addr #3 align 2 {
entry:
  br label %for.body

for.body:                                         ; preds = %entry, %for.inc
  %indvars.iv = phi i64 [ 0, %entry ], [ %indvars.iv.next, %for.inc ]
  %arrayidx = getelementptr inbounds [3 x ptr], ptr %this, i64 0, i64 %indvars.iv
  %0 = load ptr, ptr %arrayidx, align 8
  %tobool.not = icmp eq ptr %0, null
  br i1 %tobool.not, label %for.inc, label %if.then

if.then:                                          ; preds = %for.body
  %vtable = load ptr, ptr %0, align 8
  %vfn = getelementptr inbounds i8, ptr %vtable, i64 32
  %1 = load ptr, ptr %vfn, align 8
  tail call void %1(ptr noundef nonnull align 8 dereferenceable(8) %0)
  store ptr null, ptr %arrayidx, align 8
  br label %for.inc

for.inc:                                          ; preds = %for.body, %if.then
  %indvars.iv.next = add nuw nsw i64 %indvars.iv, 1
  %exitcond.not = icmp eq i64 %indvars.iv.next, 3
  br i1 %exitcond.not, label %for.end, label %for.body, !llvm.loop !7

for.end:                                          ; preds = %for.inc
  ret void
}